target datalayout = "e-m:e-p270:32:32-p271:32:32-p272:64:64-i64:64-i128:128-f80:128-n8:16:32:64-S128"
target triple = "x86_64-unknown-linux-gnu"

@_ZZN6hermes2vmL12dayFromMonthEjbE13standardTable = internal constant [13 x i16] [i16 0, i16 31, i16 59, i16 90, i16 120, i16 151, i16 181, i16 212, i16 243, i16 273, i16 304, i16 334, i16 365], align 16
@_ZZN6hermes2vmL12dayFromMonthEjbE13leapYearTable = internal constant [13 x i16] [i16 0, i16 31, i16 60, i16 91, i16 121, i16 152, i16 182, i16 213, i16 244, i16 274, i16 305, i16 335, i16 366], align 16

; Function Attrs: mustprogress nounwind uwtable
define hidden noundef double @_ZN6hermes2vm11dayFromYearEd(double noundef %y) #0 {
entry:
  %y.addr = alloca double, align 8
  store double %y, ptr %y.addr, align 8
  %0 = load double, ptr %y.addr, align 8
  %sub = fsub double %0, 1.970000e+03
  %1 = load double, ptr %y.addr, align 8
  %sub1 = fsub double %1, 1.969000e+03
  %div = fdiv double %sub1, 4.000000e+00
  %2 = call double @llvm.floor.f64(double %div)
  %3 = call double @llvm.fmuladd.f64(double 3.650000e+02, double %sub, double %2)
  %4 = load double, ptr %y.addr, align 8
  %sub2 = fsub double %4, 1.901000e+03
  %div3 = fdiv double %sub2, 1.000000e+02
  %5 = call double @llvm.floor.f64(double %div3)
  %sub4 = fsub double %3, %5
  %6 = load double, ptr %y.addr, align 8
  %sub5 = fsub double %6, 1.601000e+03
  %div6 = fdiv double %sub5, 4.000000e+02
  %7 = call double @llvm.floor.f64(double %div6)
  %add = fadd double %sub4, %7
  ret double %add
}

; Function Attrs: mustprogress nounwind uwtable
define linkonce_odr noundef double @_ZSt4fmodIdiEN9__gnu_cxx9__promoteIDTplcvNS1_IT_Xsr3std12__is_integerIS2_EE7__valueEE6__typeELi0EcvNS1_IT0_Xsr3std12__is_integerIS5_EE7__valueEE6__typeELi0EEXsr3std12__is_integerIS8_EE7__valueEE6__typeES2_S5_(double noundef %__x, i32 noundef %__y) #0 comdat {
entry:
  %__x.addr = alloca double, align 8
  %__y.addr = alloca i32, align 4
  store double %__x, ptr %__x.addr, align 8
  store i32 %__y, ptr %__y.addr, align 4
  %0 = load double, ptr %__x.addr, align 8
  %1 = load i32, ptr %__y.addr, align 4
  %conv = sitofp i32 %1 to double
  %call = call double @fmod(double noundef %0, double noundef %conv) #7
  ret double %call
}

; Function Attrs: mustprogress nounwind uwtable
define internal noundef i32 @_ZN6hermes2vmL12dayFromMonthEjb(i32 noundef %m, i1 noundef zeroext %leap) #0 {
entry:
  %m.addr = alloca i32, align 4
  %leap.addr = alloca i8, align 1
  store i32 %m, ptr %m.addr, align 4
  %frombool = zext i1 %leap to i8
  store i8 %frombool, ptr %leap.addr, align 1
  %0 = load i8, ptr %leap.addr, align 1
  %tobool = trunc i8 %0 to i1
  br i1 %tobool, label %cond.true, label %cond.false

cond.true:                                        ; preds = %entry
  %1 = load i32, ptr %m.addr, align 4
  %idxprom = zext i32 %1 to i64
  %arrayidx = getelementptr inbounds [13 x i16], ptr @_ZZN6hermes2vmL12dayFromMonthEjbE13leapYearTable, i64 0, i64 %idxprom
  %2 = load i16, ptr %arrayidx, align 2
  br label %cond.end

cond.false:                                       ; preds = %entry
  %3 = load i32, ptr %m.addr, align 4
  %idxprom1 = zext i32 %3 to i64
  %arrayidx2 = getelementptr inbounds [13 x i16], ptr @_ZZN6hermes2vmL12dayFromMonthEjbE13standardTable, i64 0, i64 %idxprom1
  %4 = load i16, ptr %arrayidx2, align 2
  br label %cond.end

cond.end:                                         ; preds = %cond.false, %cond.true
  %cond = phi i16 [ %2, %cond.true ], [ %4, %cond.false ]
  %conv = zext i16 %cond to i32
  ret i32 %conv
}

; Function Attrs: mustprogress nounwind uwtable
define hidden noundef double @_ZN6hermes2vm12timeFromYearEd(double noundef %y) #0 {
entry:
  %y.addr = alloca double, align 8
  store double %y, ptr %y.addr, align 8
  %0 = load double, ptr %y.addr, align 8
  %call = call noundef double @_ZN6hermes2vm11dayFromYearEd(double noundef %0)
  %mul = fmul double 8.640000e+07, %call
  ret double %mul
}

; Function Attrs: mustprogress nounwind uwtable
define internal noundef zeroext i1 @_ZN6hermes2vmL10isLeapYearEd(double noundef %y) #0 {
entry:
  %retval = alloca i1, align 1
  %y.addr = alloca double, align 8
  store double %y, ptr %y.addr, align 8
  %0 = load double, ptr %y.addr, align 8
  %call = call noundef double @_ZSt4fmodIdiEN9__gnu_cxx9__promoteIDTplcvNS1_IT_Xsr3std12__is_integerIS2_EE7__valueEE6__typeELi0EcvNS1_IT0_Xsr3std12__is_integerIS5_EE7__valueEE6__typeELi0EEXsr3std12__is_integerIS8_EE7__valueEE6__typeES2_S5_(double noundef %0, i32 noundef 4)
  %cmp = fcmp une double %call, 0.000000e+00
  br i1 %cmp, label %if.then, label %if.end

if.then:                                          ; preds = %entry
  store i1 false, ptr %retval, align 1
  br label %return

if.end:                                           ; preds = %entry
  %1 = load double, ptr %y.addr, align 8
  %call1 = call noundef double @_ZSt4fmodIdiEN9__gnu_cxx9__promoteIDTplcvNS1_IT_Xsr3std12__is_integerIS2_EE7__valueEE6__typeELi0EcvNS1_IT0_Xsr3std12__is_integerIS5_EE7__valueEE6__typeELi0EEXsr3std12__is_integerIS8_EE7__valueEE6__typeES2_S5_(double noundef %1, i32 noundef 100)
  %cmp2 = fcmp une double %call1, 0.000000e+00
  br i1 %cmp2, label %if.then3, label %if.end4

if.then3:                                         ; preds = %if.end
  store i1 true, ptr %retval, align 1
  br label %return

if.end4:                                          ; preds = %if.end
  %2 = load double, ptr %y.addr, align 8
  %call5 = call noundef double @_ZSt4fmodIdiEN9__gnu_cxx9__promoteIDTplcvNS1_IT_Xsr3std12__is_integerIS2_EE7__valueEE6__typeELi0EcvNS1_IT0_Xsr3std12__is_integerIS5_EE7__valueEE6__typeELi0EEXsr3std12__is_integerIS8_EE7__valueEE6__typeES2_S5_(double noundef %2, i32 noundef 400)
  %cmp6 = fcmp une double %call5, 0.000000e+00
  br i1 %cmp6, label %if.then7, label %if.end8

if.then7:                                         ; preds = %if.end4
  store i1 false, ptr %retval, align 1
  br label %return

if.end8:                                          ; preds = %if.end4
  store i1 true, ptr %retval, align 1
  br label %return

return:                                           ; preds = %if.end8, %if.then7, %if.then3, %if.then
  %3 = load i1, ptr %retval, align 1
  ret i1 %3
}

; Function Attrs: mustprogress nounwind uwtable
define internal noundef double @_ZN6hermes2vmL7posfmodEdd(double noundef %x, double noundef %y) #0 {
entry:
  %x.addr = alloca double, align 8
  %y.addr = alloca double, align 8
  %result = alloca double, align 8
  store double %x, ptr %x.addr, align 8
  store double %y, ptr %y.addr, align 8
  %0 = load double, ptr %x.addr, align 8
  %1 = load double, ptr %y.addr, align 8
  %call = call double @fmod(double noundef %0, double noundef %1) #7
  store double %call, ptr %result, align 8
  %2 = load double, ptr %result, align 8
  %cmp = fcmp olt double %2, 0.000000e+00
  br i1 %cmp, label %cond.true, label %cond.false

cond.true:                                        ; preds = %entry
  %3 = load double, ptr %result, align 8
  %4 = load double, ptr %y.addr, align 8
  %add = fadd double %3, %4
  br label %cond.end

cond.false:                                       ; preds = %entry
  %5 = load double, ptr %result, align 8
  br label %cond.end

cond.end:                                         ; preds = %cond.false, %cond.true
  %cond = phi double [ %add, %cond.true ], [ %5, %cond.false ]
  ret double %cond
}

; Function Attrs: mustprogress nounwind uwtable
define linkonce_odr noundef double @_ZNSt14numeric_limitsIdE9quiet_NaNEv() #0 comdat align 2 {
entry:
  ret double 0x7FF8000000000000
}

; Function Attrs: mustprogress nounwind uwtable
define linkonce_odr noundef zeroext i1 @_ZSt8isfinited(double noundef %__x) #0 comdat {
entry:
  %__x.addr = alloca double, align 8
  store double %__x, ptr %__x.addr, align 8
  %0 = load double, ptr %__x.addr, align 8
  %1 = call i1 @llvm.is.fpclass.f64(double %0, i32 504)
  ret i1 %1
}

; Function Attrs: mustprogress nounwind uwtable
define hidden noundef double @_ZN6hermes2vm7makeDayEddd(double noundef %year, double noundef %month, double noundef %date) #0 {
entry:
  %retval = alloca double, align 8
  %year.addr = alloca double, align 8
  %month.addr = alloca double, align 8
  %date.addr = alloca double, align 8
  %y = alloca double, align 8
  %m = alloca double, align 8
  %dt = alloca double, align 8
  %ym = alloca double, align 8
  %mn = alloca double, align 8
  %leap = alloca i8, align 1
  %yd = alloca double, align 8
  %md = alloca double, align 8
  store double %year, ptr %year.addr, align 8
  store double %month, ptr %month.addr, align 8
  store double %date, ptr %date.addr, align 8
  %0 = load double, ptr %year.addr, align 8
  %call = call noundef zeroext i1 @_ZSt8isfinited(double noundef %0)
  br i1 %call, label %lor.lhs.false, label %if.then

lor.lhs.false:                                    ; preds = %entry
  %1 = load double, ptr %month.addr, align 8
  %call1 = call noundef zeroext i1 @_ZSt8isfinited(double noundef %1)
  br i1 %call1, label %lor.lhs.false2, label %if.then

lor.lhs.false2:                                   ; preds = %lor.lhs.false
  %2 = load double, ptr %date.addr, align 8
  %call3 = call noundef zeroext i1 @_ZSt8isfinited(double noundef %2)
  br i1 %call3, label %if.end, label %if.then

if.then:                                          ; preds = %lor.lhs.false2, %lor.lhs.false, %entry
  %call4 = call noundef double @_ZNSt14numeric_limitsIdE9quiet_NaNEv() #7
  store double %call4, ptr %retval, align 8
  br label %return

if.end:                                           ; preds = %lor.lhs.false2
  %3 = load double, ptr %year.addr, align 8
  %4 = call double @llvm.trunc.f64(double %3)
  store double %4, ptr %y, align 8
  %5 = load double, ptr %month.addr, align 8
  %6 = call double @llvm.trunc.f64(double %5)
  store double %6, ptr %m, align 8
  %7 = load double, ptr %date.addr, align 8
  %8 = call double @llvm.trunc.f64(double %7)
  store double %8, ptr %dt, align 8
  %9 = load double, ptr %y, align 8
  %10 = load double, ptr %m, align 8
  %div = fdiv double %10, 1.200000e+01
  %11 = call double @llvm.floor.f64(double %div)
  %add = fadd double %9, %11
  store double %add, ptr %ym, align 8
  %12 = load double, ptr %m, align 8
  %call5 = call noundef double @_ZN6hermes2vmL7posfmodEdd(double noundef %12, double noundef 1.200000e+01)
  store double %call5, ptr %mn, align 8
  %13 = load double, ptr %ym, align 8
  %call6 = call noundef zeroext i1 @_ZN6hermes2vmL10isLeapYearEd(double noundef %13)
  %frombool = zext i1 %call6 to i8
  store i8 %frombool, ptr %leap, align 1
  %14 = load double, ptr %ym, align 8
  %call7 = call noundef double @_ZN6hermes2vm12timeFromYearEd(double noundef %14)
  %div8 = fdiv double %call7, 8.640000e+07
  %15 = call double @llvm.floor.f64(double %div8)
  store double %15, ptr %yd, align 8
  %16 = load double, ptr %mn, align 8
  %conv = fptoui double %16 to i32
  %17 = load i8, ptr %leap, align 1
  %tobool = trunc i8 %17 to i1
  %call9 = call noundef i32 @_ZN6hermes2vmL12dayFromMonthEjb(i32 noundef %conv, i1 noundef zeroext %tobool)
  %conv10 = uitofp i32 %call9 to double
  store double %conv10, ptr %md, align 8
  %18 = load double, ptr %yd, align 8
  %19 = load double, ptr %md, align 8
  %add11 = fadd double %18, %19
  %20 = load double, ptr %dt, align 8
  %add12 = fadd double %add11, %20
  %sub = fsub double %add12, 1.000000e+00
  store double %sub, ptr %retval, align 8
  br label %return

return:                                           ; preds = %if.end, %if.then
  %21 = load double, ptr %retval, align 8
  ret double %21
}