; Function Attrs: mustprogress nofree nounwind willreturn memory(write) uwtable
define hidden noundef double @_ZN6hermes2vm7makeDayEddd(double noundef %year, double noundef %month, double noundef %date) local_unnamed_addr #4 {
entry:
  %0 = tail call double @llvm.fabs.f64(double %year)
  %1 = fcmp one double %0, 0x7FF0000000000000
  %2 = tail call double @llvm.fabs.f64(double %month)
  %3 = fcmp one double %2, 0x7FF0000000000000
  %or.cond = and i1 %1, %3
  %4 = tail call double @llvm.fabs.f64(double %date)
  %5 = fcmp one double %4, 0x7FF0000000000000
  %or.cond10 = and i1 %or.cond, %5
  br i1 %or.cond10, label %if.end, label %return

if.end:                                           ; preds = %entry
  %6 = tail call double @llvm.trunc.f64(double %year)
  %7 = tail call double @llvm.trunc.f64(double %month)
  %8 = tail call double @llvm.trunc.f64(double %date)
  %div = fdiv double %7, 1.200000e+01
  %9 = tail call double @llvm.floor.f64(double %div)
  %add = fadd double %6, %9
  %call.i = tail call double @fmod(double noundef %7, double noundef 1.200000e+01) #17
  %cmp.i = fcmp olt double %call.i, 0.000000e+00
  %add.i = fadd double %call.i, 1.200000e+01
  %cond.i = select i1 %cmp.i, double %add.i, double %call.i
  %call.i.i = tail call noundef double @fmod(double noundef %add, double noundef 4.000000e+00) #17
  %cmp.i6 = fcmp une double %call.i.i, 0.000000e+00
  br i1 %cmp.i6, label %_ZN6hermes2vmL10isLeapYearEd.exit, label %if.end.i

if.end.i:                                         ; preds = %if.end
  %call.i3.i = tail call noundef double @fmod(double noundef %add, double noundef 1.000000e+02) #17
  %cmp2.i = fcmp une double %call.i3.i, 0.000000e+00
  br i1 %cmp2.i, label %_ZN6hermes2vmL10isLeapYearEd.exit, label %if.end4.i

if.end4.i:                                        ; preds = %if.end.i
  %call.i4.i = tail call noundef double @fmod(double noundef %add, double noundef 4.000000e+02) #17
  %cmp6.i = fcmp oeq double %call.i4.i, 0.000000e+00
  br label %_ZN6hermes2vmL10isLeapYearEd.exit

_ZN6hermes2vmL10isLeapYearEd.exit:                ; preds = %if.end, %if.end.i, %if.end4.i
  %retval.0.i = phi i1 [ false, %if.end ], [ true, %if.end.i ], [ %cmp6.i, %if.end4.i ]
  %sub.i.i = fadd double %add, -1.970000e+03
  %sub1.i.i = fadd double %add, -1.969000e+03
  %div.i.i = fmul double %sub1.i.i, 2.500000e-01
  %10 = tail call double @llvm.floor.f64(double %div.i.i)
  %11 = tail call double @llvm.fmuladd.f64(double %sub.i.i, double 3.650000e+02, double %10)
  %sub2.i.i = fadd double %add, -1.901000e+03
  %div3.i.i = fdiv double %sub2.i.i, 1.000000e+02
  %12 = tail call double @llvm.floor.f64(double %div3.i.i)
  %sub4.i.i = fsub double %11, %12
  %sub5.i.i = fadd double %add, -1.601000e+03
  %div6.i.i = fdiv double %sub5.i.i, 4.000000e+02
  %13 = tail call double @llvm.floor.f64(double %div6.i.i)
  %add.i.i = fadd double %13, %sub4.i.i
  %mul.i = fmul double %add.i.i, 8.640000e+07
  %div8 = fdiv double %mul.i, 8.640000e+07
  %14 = tail call double @llvm.floor.f64(double %div8)
  %conv = fptoui double %cond.i to i32
  %idxprom.i = zext i32 %conv to i64
  %arrayidx.i = getelementptr inbounds [13 x i16], ptr @_ZZN6hermes2vmL12dayFromMonthEjbE13leapYearTable, i64 0, i64 %idxprom.i
  %arrayidx2.i = getelementptr inbounds [13 x i16], ptr @_ZZN6hermes2vmL12dayFromMonthEjbE13standardTable, i64 0, i64 %idxprom.i
  %spec.select = select i1 %retval.0.i, ptr %arrayidx.i, ptr %arrayidx2.i
  %cond.i7 = load i16, ptr %spec.select, align 2
  %conv10 = uitofp i16 %cond.i7 to double
  %add11 = fadd double %14, %conv10
  %add12 = fadd double %8, %add11
  %sub = fadd double %add12, -1.000000e+00
  br label %return

return:                                           ; preds = %entry, %_ZN6hermes2vmL10isLeapYearEd.exit
  %retval.0 = phi double [ %sub, %_ZN6hermes2vmL10isLeapYearEd.exit ], [ 0x7FF8000000000000, %entry ]
  ret double %retval.0
}